target datalayout = "e-m:e-p270:32:32-p271:32:32-p272:64:64-i64:64-i128:128-f80:128-n8:16:32:64-S128"
target triple = "x86_64-pc-linux-gnu"

%"struct.vcpkg::StringLiteral" = type { %"struct.vcpkg::ZStringView" }
%"struct.vcpkg::ZStringView" = type { %"struct.vcpkg::StringView" }
%"struct.vcpkg::StringView" = type { ptr, i64 }
%"struct.vcpkg::LineInfo" = type { i32, ptr }

@.str = private unnamed_addr constant [123 x i8] c"generated/home/dtcxzyw/WorkSpace/Projects/compilers/llvm-opt-benchmark/bench/vcpkg/vcpkg-tool/src/vcpkg/commands.build.cpp\00", align 1
@.str.28 = private unnamed_addr constant [10 x i8] c"SUCCEEDED\00", align 1
@.str.29 = private unnamed_addr constant [13 x i8] c"BUILD_FAILED\00", align 1
@.str.30 = private unnamed_addr constant [25 x i8] c"POST_BUILD_CHECKS_FAILED\00", align 1
@.str.31 = private unnamed_addr constant [15 x i8] c"FILE_CONFLICTS\00", align 1
@.str.32 = private unnamed_addr constant [37 x i8] c"CASCADED_DUE_TO_MISSING_DEPENDENCIES\00", align 1
@.str.33 = private unnamed_addr constant [9 x i8] c"EXCLUDED\00", align 1
@.str.34 = private unnamed_addr constant [14 x i8] c"CACHE_MISSING\00", align 1
@.str.35 = private unnamed_addr constant [11 x i8] c"DOWNLOADED\00", align 1
@.str.36 = private unnamed_addr constant [8 x i8] c"REMOVED\00", align 1

; Function Attrs: mustprogress nounwind uwtable
define linkonce_odr dso_local void @_ZN5vcpkg10StringViewC2EPKcm(ptr noundef nonnull align 8 dereferenceable(16) %0, ptr noundef %1, i64 noundef %2) unnamed_addr #4 comdat align 2 {
  %4 = alloca ptr, align 8
  %5 = alloca ptr, align 8
  %6 = alloca i64, align 8
  store ptr %0, ptr %4, align 8
  store ptr %1, ptr %5, align 8
  store i64 %2, ptr %6, align 8
  %7 = load ptr, ptr %4, align 8
  %8 = getelementptr inbounds %"struct.vcpkg::StringView", ptr %7, i32 0, i32 0
  %9 = load ptr, ptr %5, align 8
  store ptr %9, ptr %8, align 8
  %10 = getelementptr inbounds %"struct.vcpkg::StringView", ptr %7, i32 0, i32 1
  %11 = load i64, ptr %6, align 8
  store i64 %11, ptr %10, align 8
  ret void
}

; Function Attrs: mustprogress nounwind uwtable
define linkonce_odr dso_local void @_ZN5vcpkg11ZStringViewC2EPKcm(ptr noundef nonnull align 8 dereferenceable(16) %0, ptr noundef %1, i64 noundef %2) unnamed_addr #4 comdat align 2 {
  %4 = alloca ptr, align 8
  %5 = alloca ptr, align 8
  %6 = alloca i64, align 8
  store ptr %0, ptr %4, align 8
  store ptr %1, ptr %5, align 8
  store i64 %2, ptr %6, align 8
  %7 = load ptr, ptr %4, align 8
  %8 = load ptr, ptr %5, align 8
  %9 = load i64, ptr %6, align 8
  call void @_ZN5vcpkg10StringViewC2EPKcm(ptr noundef nonnull align 8 dereferenceable(16) %7, ptr noundef %8, i64 noundef %9) #8
  ret void
}

; Function Attrs: mustprogress nounwind uwtable
define linkonce_odr dso_local void @_ZN5vcpkg13StringLiteralC2ILi8EEERAT__Kc(ptr noundef nonnull align 8 dereferenceable(16) %0, ptr noundef nonnull align 1 dereferenceable(8) %1) unnamed_addr #4 comdat align 2 {
  %3 = alloca ptr, align 8
  %4 = alloca ptr, align 8
  store ptr %0, ptr %3, align 8
  store ptr %1, ptr %4, align 8
  %5 = load ptr, ptr %3, align 8
  %6 = load ptr, ptr %4, align 8
  %7 = getelementptr inbounds [8 x i8], ptr %6, i64 0, i64 0
  call void @_ZN5vcpkg11ZStringViewC2EPKcm(ptr noundef nonnull align 8 dereferenceable(16) %5, ptr noundef %7, i64 noundef 7) #8
  ret void
}

; Function Attrs: mustprogress nounwind uwtable
define linkonce_odr dso_local void @_ZN5vcpkg13StringLiteralC2ILi11EEERAT__Kc(ptr noundef nonnull align 8 dereferenceable(16) %0, ptr noundef nonnull align 1 dereferenceable(11) %1) unnamed_addr #4 comdat align 2 {
  %3 = alloca ptr, align 8
  %4 = alloca ptr, align 8
  store ptr %0, ptr %3, align 8
  store ptr %1, ptr %4, align 8
  %5 = load ptr, ptr %3, align 8
  %6 = load ptr, ptr %4, align 8
  %7 = getelementptr inbounds [11 x i8], ptr %6, i64 0, i64 0
  call void @_ZN5vcpkg11ZStringViewC2EPKcm(ptr noundef nonnull align 8 dereferenceable(16) %5, ptr noundef %7, i64 noundef 10) #8
  ret void
}

; Function Attrs: mustprogress nounwind uwtable
define linkonce_odr dso_local void @_ZN5vcpkg13StringLiteralC2ILi14EEERAT__Kc(ptr noundef nonnull align 8 dereferenceable(16) %0, ptr noundef nonnull align 1 dereferenceable(14) %1) unnamed_addr #4 comdat align 2 {
  %3 = alloca ptr, align 8
  %4 = alloca ptr, align 8
  store ptr %0, ptr %3, align 8
  store ptr %1, ptr %4, align 8
  %5 = load ptr, ptr %3, align 8
  %6 = load ptr, ptr %4, align 8
  %7 = getelementptr inbounds [14 x i8], ptr %6, i64 0, i64 0
  call void @_ZN5vcpkg11ZStringViewC2EPKcm(ptr noundef nonnull align 8 dereferenceable(16) %5, ptr noundef %7, i64 noundef 13) #8
  ret void
}

; Function Attrs: mustprogress nounwind uwtable
define linkonce_odr dso_local void @_ZN5vcpkg13StringLiteralC2ILi9EEERAT__Kc(ptr noundef nonnull align 8 dereferenceable(16) %0, ptr noundef nonnull align 1 dereferenceable(9) %1) unnamed_addr #4 comdat align 2 {
  %3 = alloca ptr, align 8
  %4 = alloca ptr, align 8
  store ptr %0, ptr %3, align 8
  store ptr %1, ptr %4, align 8
  %5 = load ptr, ptr %3, align 8
  %6 = load ptr, ptr %4, align 8
  %7 = getelementptr inbounds [9 x i8], ptr %6, i64 0, i64 0
  call void @_ZN5vcpkg11ZStringViewC2EPKcm(ptr noundef nonnull align 8 dereferenceable(16) %5, ptr noundef %7, i64 noundef 8) #8
  ret void
}

; Function Attrs: mustprogress nounwind uwtable
define linkonce_odr dso_local void @_ZN5vcpkg13StringLiteralC2ILi37EEERAT__Kc(ptr noundef nonnull align 8 dereferenceable(16) %0, ptr noundef nonnull align 1 dereferenceable(37) %1) unnamed_addr #4 comdat align 2 {
  %3 = alloca ptr, align 8
  %4 = alloca ptr, align 8
  store ptr %0, ptr %3, align 8
  store ptr %1, ptr %4, align 8
  %5 = load ptr, ptr %3, align 8
  %6 = load ptr, ptr %4, align 8
  %7 = getelementptr inbounds [37 x i8], ptr %6, i64 0, i64 0
  call void @_ZN5vcpkg11ZStringViewC2EPKcm(ptr noundef nonnull align 8 dereferenceable(16) %5, ptr noundef %7, i64 noundef 36) #8
  ret void
}

; Function Attrs: mustprogress nounwind uwtable
define linkonce_odr dso_local void @_ZN5vcpkg13StringLiteralC2ILi15EEERAT__Kc(ptr noundef nonnull align 8 dereferenceable(16) %0, ptr noundef nonnull align 1 dereferenceable(15) %1) unnamed_addr #4 comdat align 2 {
  %3 = alloca ptr, align 8
  %4 = alloca ptr, align 8
  store ptr %0, ptr %3, align 8
  store ptr %1, ptr %4, align 8
  %5 = load ptr, ptr %3, align 8
  %6 = load ptr, ptr %4, align 8
  %7 = getelementptr inbounds [15 x i8], ptr %6, i64 0, i64 0
  call void @_ZN5vcpkg11ZStringViewC2EPKcm(ptr noundef nonnull align 8 dereferenceable(16) %5, ptr noundef %7, i64 noundef 14) #8
  ret void
}

; Function Attrs: mustprogress nounwind uwtable
define linkonce_odr dso_local void @_ZN5vcpkg13StringLiteralC2ILi25EEERAT__Kc(ptr noundef nonnull align 8 dereferenceable(16) %0, ptr noundef nonnull align 1 dereferenceable(25) %1) unnamed_addr #4 comdat align 2 {
  %3 = alloca ptr, align 8
  %4 = alloca ptr, align 8
  store ptr %0, ptr %3, align 8
  store ptr %1, ptr %4, align 8
  %5 = load ptr, ptr %3, align 8
  %6 = load ptr, ptr %4, align 8
  %7 = getelementptr inbounds [25 x i8], ptr %6, i64 0, i64 0
  call void @_ZN5vcpkg11ZStringViewC2EPKcm(ptr noundef nonnull align 8 dereferenceable(16) %5, ptr noundef %7, i64 noundef 24) #8
  ret void
}

; Function Attrs: mustprogress nounwind uwtable
define linkonce_odr dso_local void @_ZN5vcpkg13StringLiteralC2ILi13EEERAT__Kc(ptr noundef nonnull align 8 dereferenceable(16) %0, ptr noundef nonnull align 1 dereferenceable(13) %1) unnamed_addr #4 comdat align 2 {
  %3 = alloca ptr, align 8
  %4 = alloca ptr, align 8
  store ptr %0, ptr %3, align 8
  store ptr %1, ptr %4, align 8
  %5 = load ptr, ptr %3, align 8
  %6 = load ptr, ptr %4, align 8
  %7 = getelementptr inbounds [13 x i8], ptr %6, i64 0, i64 0
  call void @_ZN5vcpkg11ZStringViewC2EPKcm(ptr noundef nonnull align 8 dereferenceable(16) %5, ptr noundef %7, i64 noundef 12) #8
  ret void
}

; Function Attrs: mustprogress nounwind uwtable
define linkonce_odr dso_local void @_ZN5vcpkg13StringLiteralC2ILi10EEERAT__Kc(ptr noundef nonnull align 8 dereferenceable(16) %0, ptr noundef nonnull align 1 dereferenceable(10) %1) unnamed_addr #4 comdat align 2 {
  %3 = alloca ptr, align 8
  %4 = alloca ptr, align 8
  store ptr %0, ptr %3, align 8
  store ptr %1, ptr %4, align 8
  %5 = load ptr, ptr %3, align 8
  %6 = load ptr, ptr %4, align 8
  %7 = getelementptr inbounds [10 x i8], ptr %6, i64 0, i64 0
  call void @_ZN5vcpkg11ZStringViewC2EPKcm(ptr noundef nonnull align 8 dereferenceable(16) %5, ptr noundef %7, i64 noundef 9) #8
  ret void
}

; Function Attrs: mustprogress uwtable
define dso_local { ptr, i64 } @_ZN5vcpkg26to_string_locale_invariantENS_11BuildResultE(i32 noundef %0) #0 {
  %2 = alloca %"struct.vcpkg::StringLiteral", align 8
  %3 = alloca i32, align 4
  %4 = alloca %"struct.vcpkg::LineInfo", align 8
  store i32 %0, ptr %3, align 4
  %5 = load i32, ptr %3, align 4
  switch i32 %5, label %15 [
    i32 0, label %6
    i32 1, label %7
    i32 2, label %8
    i32 3, label %9
    i32 4, label %10
    i32 5, label %11
    i32 6, label %12
    i32 7, label %13
    i32 8, label %14
  ]

6:                                                ; preds = %1
  call void @_ZN5vcpkg13StringLiteralC2ILi10EEERAT__Kc(ptr noundef nonnull align 8 dereferenceable(16) %2, ptr noundef nonnull align 1 dereferenceable(10) @.str.28)
  br label %18

7:                                                ; preds = %1
  call void @_ZN5vcpkg13StringLiteralC2ILi13EEERAT__Kc(ptr noundef nonnull align 8 dereferenceable(16) %2, ptr noundef nonnull align 1 dereferenceable(13) @.str.29)
  br label %18

8:                                                ; preds = %1
  call void @_ZN5vcpkg13StringLiteralC2ILi25EEERAT__Kc(ptr noundef nonnull align 8 dereferenceable(16) %2, ptr noundef nonnull align 1 dereferenceable(25) @.str.30)
  br label %18

9:                                                ; preds = %1
  call void @_ZN5vcpkg13StringLiteralC2ILi15EEERAT__Kc(ptr noundef nonnull align 8 dereferenceable(16) %2, ptr noundef nonnull align 1 dereferenceable(15) @.str.31)
  br label %18

10:                                               ; preds = %1
  call void @_ZN5vcpkg13StringLiteralC2ILi37EEERAT__Kc(ptr noundef nonnull align 8 dereferenceable(16) %2, ptr noundef nonnull align 1 dereferenceable(37) @.str.32)
  br label %18

11:                                               ; preds = %1
  call void @_ZN5vcpkg13StringLiteralC2ILi9EEERAT__Kc(ptr noundef nonnull align 8 dereferenceable(16) %2, ptr noundef nonnull align 1 dereferenceable(9) @.str.33)
  br label %18

12:                                               ; preds = %1
  call void @_ZN5vcpkg13StringLiteralC2ILi14EEERAT__Kc(ptr noundef nonnull align 8 dereferenceable(16) %2, ptr noundef nonnull align 1 dereferenceable(14) @.str.34)
  br label %18

13:                                               ; preds = %1
  call void @_ZN5vcpkg13StringLiteralC2ILi11EEERAT__Kc(ptr noundef nonnull align 8 dereferenceable(16) %2, ptr noundef nonnull align 1 dereferenceable(11) @.str.35)
  br label %18

14:                                               ; preds = %1
  call void @_ZN5vcpkg13StringLiteralC2ILi8EEERAT__Kc(ptr noundef nonnull align 8 dereferenceable(16) %2, ptr noundef nonnull align 1 dereferenceable(8) @.str.36)
  br label %18

15:                                               ; preds = %1
  %16 = getelementptr inbounds %"struct.vcpkg::LineInfo", ptr %4, i32 0, i32 0
  store i32 1429, ptr %16, align 8
  %17 = getelementptr inbounds %"struct.vcpkg::LineInfo", ptr %4, i32 0, i32 1
  store ptr @.str, ptr %17, align 8
  call void @_ZN5vcpkg6Checks11unreachableERKNS_8LineInfoE(ptr noundef nonnull align 8 dereferenceable(16) %4) #20
  unreachable

18:                                               ; preds = %14, %13, %12, %11, %10, %9, %8, %7, %6
  %19 = getelementptr inbounds %"struct.vcpkg::StringLiteral", ptr %2, i32 0, i32 0
  %20 = getelementptr inbounds %"struct.vcpkg::ZStringView", ptr %19, i32 0, i32 0
  %21 = load { ptr, i64 }, ptr %20, align 8
  ret { ptr, i64 } %21
}