; Function Attrs: mustprogress uwtable
define dso_local { ptr, i64 } @_ZN5vcpkg26to_string_locale_invariantENS_11BuildResultE(i32 noundef %0) local_unnamed_addr #2 {
  %2 = alloca %"struct.vcpkg::LineInfo", align 8
  %3 = icmp ult i32 %0, 9
  br i1 %3, label %switch.lookup, label %4

4:                                                ; preds = %1
  store i32 1429, ptr %2, align 8
  %5 = getelementptr inbounds i8, ptr %2, i64 8
  store ptr @.str, ptr %5, align 8
  call void @_ZN5vcpkg6Checks11unreachableERKNS_8LineInfoE(ptr noundef nonnull align 8 dereferenceable(16) %2) #24
  unreachable

switch.lookup:                                    ; preds = %1
  %6 = zext nneg i32 %0 to i64
  %switch.gep = getelementptr inbounds [9 x i64], ptr @switch.table._ZN5vcpkg26to_string_locale_invariantENS_11BuildResultE, i64 0, i64 %6
  %switch.load = load i64, ptr %switch.gep, align 8
  %7 = zext nneg i32 %0 to i64
  %switch.gep1 = getelementptr inbounds [9 x ptr], ptr @switch.table._ZN5vcpkg26to_string_locale_invariantENS_11BuildResultE.50, i64 0, i64 %7
  %switch.load2 = load ptr, ptr %switch.gep1, align 8
  %.fca.0.insert = insertvalue { ptr, i64 } poison, ptr %switch.load2, 0
  %.fca.1.insert = insertvalue { ptr, i64 } %.fca.0.insert, i64 %switch.load, 1
  ret { ptr, i64 } %.fca.1.insert
}